(dp0
S'4026'
p1
I0
sS'4027'
p2
I0
sS'4024'
p3
I0
sS'4025'
p4
I0
sS'4022'
p5
I0
sS'4023'
p6
I0
sS'4020'
p7
I0
sS'4021'
p8
I0
sS'11548'
p9
I1
sS'11549'
p10
I1
sS'4028'
p11
I0
sS'4029'
p12
I0
sS'3999'
p13
I0
sS'3998'
p14
I0
sS'3997'
p15
I0
sS'3996'
p16
I0
sS'3995'
p17
I0
sS'3994'
p18
I0
sS'3993'
p19
I0
sS'3992'
p20
I0
sS'3991'
p21
I0
sS'3990'
p22
I0
sS'12105'
p23
I1
sS'12104'
p24
I1
sS'11542'
p25
I1
sS'12101'
p26
I1
sS'11543'
p27
I1
sS'12100'
p28
I1
sS'11540'
p29
I1
sS'3683'
p30
I0
sS'11541'
p31
I1
sS'3682'
p32
I0
sS'11546'
p33
I1
sS'3681'
p34
I0
sS'11547'
p35
I1
sS'3773'
p36
I0
sS'3772'
p37
I0
sS'3771'
p38
I0
sS'3770'
p39
I0
sS'3777'
p40
I0
sS'3776'
p41
I0
sS'3775'
p42
I0
sS'3774'
p43
I0
sS'3687'
p44
I0
sS'3779'
p45
I0
sS'3778'
p46
I0
sS'3686'
p47
I0
sS'4655'
p48
I0
sS'4654'
p49
I0
sS'4657'
p50
I0
sS'4656'
p51
I0
sS'4651'
p52
I0
sS'3685'
p53
I0
sS'4653'
p54
I0
sS'4652'
p55
I0
sS'3684'
p56
I0
sS'4659'
p57
I0
sS'4658'
p58
I0
sS'12019'
p59
I1
sS'12018'
p60
I1
sS'12015'
p61
I1
sS'12014'
p62
I1
sS'12017'
p63
I1
sS'12016'
p64
I1
sS'12011'
p65
I1
sS'12010'
p66
I1
sS'12013'
p67
I1
sS'12012'
p68
I1
sS'11768'
p69
I1
sS'11769'
p70
I1
sS'11762'
p71
I1
sS'11763'
p72
I1
sS'11760'
p73
I1
sS'11761'
p74
I1
sS'11766'
p75
I1
sS'11767'
p76
I1
sS'11764'
p77
I1
sS'11765'
p78
I1
sS'11616'
p79
I1
sS'11617'
p80
I1
sS'11614'
p81
I1
sS'11615'
p82
I1
sS'11612'
p83
I1
sS'11613'
p84
I1
sS'11610'
p85
I1
sS'11611'
p86
I1
sS'12121'
p87
I1
sS'12120'
p88
I1
sS'12123'
p89
I1
sS'12122'
p90
I1
sS'12125'
p91
I1
sS'12124'
p92
I1
sS'11618'
p93
I1
sS'11619'
p94
I1
sS'20520'
p95
I2
sS'20521'
p96
I2
sS'20522'
p97
I2
sS'20523'
p98
I2
sS'20524'
p99
I2
sS'20525'
p100
I2
sS'11948'
p101
I1
sS'11949'
p102
I1
sS'11946'
p103
I1
sS'11947'
p104
I1
sS'11944'
p105
I1
sS'11945'
p106
I1
sS'11942'
p107
I1
sS'11943'
p108
I1
sS'11940'
p109
I1
sS'11941'
p110
I1
sS'3519'
p111
I0
sS'3518'
p112
I0
sS'3513'
p113
I0
sS'3512'
p114
I0
sS'3511'
p115
I0
sS'3510'
p116
I0
sS'3517'
p117
I0
sS'3516'
p118
I0
sS'3515'
p119
I0
sS'3514'
p120
I0
sS'30329'
p121
I3
sS'30328'
p122
I3
sS'30323'
p123
I3
sS'30322'
p124
I3
sS'30321'
p125
I3
sS'30320'
p126
I3
sS'30327'
p127
I3
sS'30326'
p128
I3
sS'30325'
p129
I3
sS'30324'
p130
I3
sS'3348'
p131
I0
sS'3349'
p132
I0
sS'3342'
p133
I0
sS'3343'
p134
I0
sS'3340'
p135
I0
sS'3341'
p136
I0
sS'3346'
p137
I0
sS'3347'
p138
I0
sS'3344'
p139
I0
sS'3345'
p140
I0
sS'4259'
p141
I0
sS'4258'
p142
I0
sS'4251'
p143
I0
sS'4250'
p144
I0
sS'4253'
p145
I0
sS'4252'
p146
I0
sS'4255'
p147
I0
sS'4254'
p148
I0
sS'4257'
p149
I0
sS'4256'
p150
I0
sS'4389'
p151
I0
sS'4388'
p152
I0
sS'4383'
p153
I0
sS'4382'
p154
I0
sS'4381'
p155
I0
sS'4380'
p156
I0
sS'4387'
p157
I0
sS'4386'
p158
I0
sS'4385'
p159
I0
sS'4384'
p160
I0
sS'3834'
p161
I0
sS'3835'
p162
I0
sS'3836'
p163
I0
sS'3837'
p164
I0
sS'3830'
p165
I0
sS'3831'
p166
I0
sS'3832'
p167
I0
sS'3833'
p168
I0
sS'3838'
p169
I0
sS'3839'
p170
I0
sS'4031'
p171
I0
sS'4030'
p172
I0
sS'4033'
p173
I0
sS'4032'
p174
I0
sS'4035'
p175
I0
sS'4034'
p176
I0
sS'4037'
p177
I0
sS'4036'
p178
I0
sS'4039'
p179
I0
sS'4038'
p180
I0
sS'11575'
p181
I1
sS'11574'
p182
I1
sS'11573'
p183
I1
sS'11572'
p184
I1
sS'11571'
p185
I1
sS'11570'
p186
I1
sS'30382'
p187
I3
sS'3748'
p188
I0
sS'3749'
p189
I0
sS'3746'
p190
I0
sS'3747'
p191
I0
sS'3744'
p192
I0
sS'3745'
p193
I0
sS'3742'
p194
I0
sS'3743'
p195
I0
sS'3740'
p196
I0
sS'3741'
p197
I0
sS'4620'
p198
I0
sS'4621'
p199
I0
sS'4622'
p200
I0
sS'4623'
p201
I0
sS'4624'
p202
I0
sS'4625'
p203
I0
sS'4626'
p204
I0
sS'4627'
p205
I0
sS'4628'
p206
I0
sS'4629'
p207
I0
sS'11757'
p208
I1
sS'11756'
p209
I1
sS'11755'
p210
I1
sS'11754'
p211
I1
sS'11753'
p212
I1
sS'11752'
p213
I1
sS'11751'
p214
I1
sS'11750'
p215
I1
sS'12006'
p216
I1
sS'12007'
p217
I1
sS'12004'
p218
I1
sS'12005'
p219
I1
sS'12002'
p220
I1
sS'12003'
p221
I1
sS'11759'
p222
I1
sS'11758'
p223
I1
sS'11595'
p224
I1
sS'11594'
p225
I1
sS'11597'
p226
I1
sS'11596'
p227
I1
sS'11591'
p228
I1
sS'11590'
p229
I1
sS'11593'
p230
I1
sS'11592'
p231
I1
sS'11599'
p232
I1
sS'11598'
p233
I1
sS'20448'
p234
I2
sS'20493'
p235
I2
sS'20579'
p236
I2
sS'3698'
p237
I0
sS'3699'
p238
I0
sS'20578'
p239
I2
sS'4538'
p240
I0
sS'4539'
p241
I0
sS'4534'
p242
I0
sS'4535'
p243
I0
sS'4536'
p244
I0
sS'3693'
p245
I0
sS'3694'
p246
I0
sS'4531'
p247
I0
sS'3696'
p248
I0
sS'3697'
p249
I0
sS'11623'
p250
I1
sS'11622'
p251
I1
sS'11621'
p252
I1
sS'11620'
p253
I1
sS'11627'
p254
I1
sS'11626'
p255
I1
sS'11625'
p256
I1
sS'11624'
p257
I1
sS'12132'
p258
I1
sS'12133'
p259
I1
sS'11629'
p260
I1
sS'11628'
p261
I1
sS'12136'
p262
I1
sS'12137'
p263
I1
sS'12134'
p264
I1
sS'12135'
p265
I1
sS'11979'
p266
I1
sS'11978'
p267
I1
sS'11973'
p268
I1
sS'11972'
p269
I1
sS'11971'
p270
I1
sS'11970'
p271
I1
sS'11977'
p272
I1
sS'11976'
p273
I1
sS'11975'
p274
I1
sS'11974'
p275
I1
sS'3526'
p276
I0
sS'3527'
p277
I0
sS'3524'
p278
I0
sS'3525'
p279
I0
sS'3522'
p280
I0
sS'3523'
p281
I0
sS'3520'
p282
I0
sS'3521'
p283
I0
sS'3528'
p284
I0
sS'3529'
p285
I0
sS'4650'
p286
I0
sS'20469'
p287
I2
sS'4556'
p288
I0
sS'4557'
p289
I0
sS'20461'
p290
I2
sS'20460'
p291
I2
sS'20463'
p292
I2
sS'20462'
p293
I2
sS'20465'
p294
I2
sS'4554'
p295
I0
sS'20467'
p296
I2
sS'20466'
p297
I2
sS'4555'
p298
I0
sS'4552'
p299
I0
sS'4553'
p300
I0
sS'4550'
p301
I0
sS'4532'
p302
I0
sS'4551'
p303
I0
sS'3355'
p304
I0
sS'3354'
p305
I0
sS'3357'
p306
I0
sS'3356'
p307
I0
sS'3351'
p308
I0
sS'3350'
p309
I0
sS'3353'
p310
I0
sS'3352'
p311
I0
sS'3359'
p312
I0
sS'3358'
p313
I0
sS'4537'
p314
I0
sS'30334'
p315
I3
sS'30335'
p316
I3
sS'30336'
p317
I3
sS'30337'
p318
I3
sS'30330'
p319
I3
sS'30331'
p320
I3
sS'30332'
p321
I3
sS'30333'
p322
I3
sS'30338'
p323
I3
sS'30339'
p324
I3
sS'3827'
p325
I0
sS'3826'
p326
I0
sS'3825'
p327
I0
sS'3824'
p328
I0
sS'3823'
p329
I0
sS'3822'
p330
I0
sS'3821'
p331
I0
sS'3820'
p332
I0
sS'3829'
p333
I0
sS'3828'
p334
I0
sS'11568'
p335
I1
sS'11569'
p336
I1
sS'11560'
p337
I1
sS'11561'
p338
I1
sS'11562'
p339
I1
sS'11563'
p340
I1
sS'11564'
p341
I1
sS'11565'
p342
I1
sS'11566'
p343
I1
sS'11567'
p344
I1
sS'4282'
p345
I0
sS'4283'
p346
I0
sS'4280'
p347
I0
sS'4281'
p348
I0
sS'4286'
p349
I0
sS'4287'
p350
I0
sS'4284'
p351
I0
sS'4285'
p352
I0
sS'4288'
p353
I0
sS'4289'
p354
I0
sS'3759'
p355
I0
sS'3758'
p356
I0
sS'3751'
p357
I0
sS'3750'
p358
I0
sS'3753'
p359
I0
sS'3752'
p360
I0
sS'3755'
p361
I0
sS'3754'
p362
I0
sS'3757'
p363
I0
sS'3756'
p364
I0
sS'4633'
p365
I0
sS'4632'
p366
I0
sS'4631'
p367
I0
sS'4630'
p368
I0
sS'4637'
p369
I0
sS'4636'
p370
I0
sS'4635'
p371
I0
sS'4634'
p372
I0
sS'4639'
p373
I0
sS'4638'
p374
I0
sS'11740'
p375
I1
sS'11741'
p376
I1
sS'11742'
p377
I1
sS'11743'
p378
I1
sS'11744'
p379
I1
sS'11745'
p380
I1
sS'11746'
p381
I1
sS'11747'
p382
I1
sS'11748'
p383
I1
sS'11749'
p384
I1
sS'12031'
p385
I1
sS'12030'
p386
I1
sS'12023'
p387
I1
sS'12036'
p388
I1
sS'12035'
p389
I1
sS'12034'
p390
I1
sS'11586'
p391
I1
sS'11587'
p392
I1
sS'11584'
p393
I1
sS'11585'
p394
I1
sS'11582'
p395
I1
sS'11583'
p396
I1
sS'11580'
p397
I1
sS'11581'
p398
I1
sS'11588'
p399
I1
sS'11589'
p400
I1
sS'12107'
p401
I1
sS'12106'
p402
I1
sS'3689'
p403
I0
sS'3688'
p404
I0
sS'12103'
p405
I1
sS'12102'
p406
I1
sS'4529'
p407
I0
sS'4528'
p408
I0
sS'4527'
p409
I0
sS'4526'
p410
I0
sS'4525'
p411
I0
sS'4524'
p412
I0
sS'4523'
p413
I0
sS'4522'
p414
I0
sS'4521'
p415
I0
sS'4520'
p416
I0
sS'11638'
p417
I1
sS'11639'
p418
I1
sS'11634'
p419
I1
sS'11635'
p420
I1
sS'11636'
p421
I1
sS'11637'
p422
I1
sS'11630'
p423
I1
sS'11631'
p424
I1
sS'11632'
p425
I1
sS'11633'
p426
I1
sS'3531'
p427
I0
sS'3530'
p428
I0
sS'3533'
p429
I0
sS'3532'
p430
I0
sS'3535'
p431
I0
sS'3534'
p432
I0
sS'3537'
p433
I0
sS'3536'
p434
I0
sS'3539'
p435
I0
sS'3538'
p436
I0
sS'12129'
p437
I1
sS'12128'
p438
I1
sS'20478'
p439
I2
sS'20479'
p440
I2
sS'20472'
p441
I2
sS'20473'
p442
I2
sS'20470'
p443
I2
sS'20471'
p444
I2
sS'20476'
p445
I2
sS'20477'
p446
I2
sS'20474'
p447
I2
sS'20475'
p448
I2
sS'11964'
p449
I1
sS'11965'
p450
I1
sS'11966'
p451
I1
sS'11967'
p452
I1
sS'11960'
p453
I1
sS'11961'
p454
I1
sS'11962'
p455
I1
sS'11963'
p456
I1
sS'12126'
p457
I1
sS'11968'
p458
I1
sS'11969'
p459
I1
sS'3320'
p460
I0
sS'3321'
p461
I0
sS'3322'
p462
I0
sS'3323'
p463
I0
sS'3324'
p464
I0
sS'3325'
p465
I0
sS'3326'
p466
I0
sS'3327'
p467
I0
sS'3328'
p468
I0
sS'3329'
p469
I0
sS'20526'
p470
I2
sS'20527'
p471
I2
sS'20528'
p472
I2
sS'20529'
p473
I2
sS'20486'
p474
I2
sS'30293'
p475
I3
sS'30292'
p476
I3
sS'30291'
p477
I3
sS'30290'
p478
I3
sS'30297'
p479
I3
sS'30296'
p480
I3
sS'30295'
p481
I3
sS'30294'
p482
I3
sS'30299'
p483
I3
sS'30298'
p484
I3
sS'30341'
p485
I3
sS'30340'
p486
I3
sS'30343'
p487
I3
sS'30342'
p488
I3
sS'30345'
p489
I3
sS'30344'
p490
I3
sS'30347'
p491
I3
sS'30346'
p492
I3
sS'30349'
p493
I3
sS'30348'
p494
I3
sS'3812'
p495
I0
sS'3813'
p496
I0
sS'3810'
p497
I0
sS'3811'
p498
I0
sS'3816'
p499
I0
sS'3817'
p500
I0
sS'3814'
p501
I0
sS'3815'
p502
I0
sS'3818'
p503
I0
sS'3819'
p504
I0
sS'4299'
p505
I0
sS'4298'
p506
I0
sS'4295'
p507
I0
sS'4294'
p508
I0
sS'4297'
p509
I0
sS'4296'
p510
I0
sS'4291'
p511
I0
sS'4290'
p512
I0
sS'4293'
p513
I0
sS'4292'
p514
I0
sS'12024'
p515
I1
sS'12025'
p516
I1
sS'12026'
p517
I1
sS'12027'
p518
I1
sS'12020'
p519
I1
sS'12021'
p520
I1
sS'4608'
p521
I0
sS'4609'
p522
I0
sS'4606'
p523
I0
sS'4607'
p524
I0
sS'4604'
p525
I0
sS'4605'
p526
I0
sS'4602'
p527
I0
sS'4603'
p528
I0
sS'4600'
p529
I0
sS'4601'
p530
I0
sS'12110'
p531
I1
sS'12111'
p532
I1
sS'4518'
p533
I0
sS'4519'
p534
I0
sS'12114'
p535
I1
sS'12115'
p536
I1
sS'12116'
p537
I1
sS'12117'
p538
I1
sS'4512'
p539
I0
sS'4513'
p540
I0
sS'4510'
p541
I0
sS'4511'
p542
I0
sS'4516'
p543
I0
sS'4517'
p544
I0
sS'4514'
p545
I0
sS'4515'
p546
I0
sS'11649'
p547
I1
sS'11648'
p548
I1
sS'11641'
p549
I1
sS'11640'
p550
I1
sS'11643'
p551
I1
sS'11642'
p552
I1
sS'11645'
p553
I1
sS'11644'
p554
I1
sS'11647'
p555
I1
sS'11646'
p556
I1
sS'3782'
p557
I0
sS'3783'
p558
I0
sS'3780'
p559
I0
sS'3781'
p560
I0
sS'3786'
p561
I0
sS'3787'
p562
I0
sS'3784'
p563
I0
sS'3785'
p564
I0
sS'3788'
p565
I0
sS'3789'
p566
I0
sS'20447'
p567
I2
sS'20446'
p568
I2
sS'20445'
p569
I2
sS'20444'
p570
I2
sS'11829'
p571
I1
sS'11828'
p572
I1
sS'20441'
p573
I2
sS'20440'
p574
I2
sS'11825'
p575
I1
sS'11824'
p576
I1
sS'11827'
p577
I1
sS'11826'
p578
I1
sS'11821'
p579
I1
sS'11820'
p580
I1
sS'11823'
p581
I1
sS'11822'
p582
I1
sS'12109'
p583
I1
sS'12130'
p584
I1
sS'11911'
p585
I1
sS'11910'
p586
I1
sS'11913'
p587
I1
sS'11912'
p588
I1
sS'11915'
p589
I1
sS'11914'
p590
I1
sS'11917'
p591
I1
sS'11916'
p592
I1
sS'11919'
p593
I1
sS'11918'
p594
I1
sS'3333'
p595
I0
sS'3332'
p596
I0
sS'3331'
p597
I0
sS'3330'
p598
I0
sS'3337'
p599
I0
sS'3336'
p600
I0
sS'3335'
p601
I0
sS'3334'
p602
I0
sS'3339'
p603
I0
sS'3338'
p604
I0
sS'3658'
p605
I0
sS'4575'
p606
I0
sS'4578'
p607
I0
sS'30288'
p608
I3
sS'30289'
p609
I3
sS'3655'
p610
I0
sS'30284'
p611
I3
sS'30285'
p612
I3
sS'30286'
p613
I3
sS'30287'
p614
I3
sS'30280'
p615
I3
sS'30281'
p616
I3
sS'30282'
p617
I3
sS'30283'
p618
I3
sS'30352'
p619
I3
sS'30353'
p620
I3
sS'30350'
p621
I3
sS'30351'
p622
I3
sS'30356'
p623
I3
sS'30357'
p624
I3
sS'30354'
p625
I3
sS'30355'
p626
I3
sS'11865'
p627
I1
sS'30358'
p628
I3
sS'30359'
p629
I3
sS'4198'
p630
I0
sS'4199'
p631
I0
sS'4196'
p632
I0
sS'4197'
p633
I0
sS'4194'
p634
I0
sS'4195'
p635
I0
sS'4192'
p636
I0
sS'4193'
p637
I0
sS'4190'
p638
I0
sS'4191'
p639
I0
sS'4358'
p640
I0
sS'4359'
p641
I0
sS'4354'
p642
I0
sS'4355'
p643
I0
sS'4356'
p644
I0
sS'4357'
p645
I0
sS'4350'
p646
I0
sS'4351'
p647
I0
sS'4352'
p648
I0
sS'4353'
p649
I0
sS'3809'
p650
I0
sS'3808'
p651
I0
sS'3805'
p652
I0
sS'3804'
p653
I0
sS'3807'
p654
I0
sS'3806'
p655
I0
sS'3801'
p656
I0
sS'3800'
p657
I0
sS'3803'
p658
I0
sS'3802'
p659
I0
sS'4174'
p660
I0
sS'4175'
p661
I0
sS'4176'
p662
I0
sS'4177'
p663
I0
sS'4170'
p664
I0
sS'4171'
p665
I0
sS'4172'
p666
I0
sS'4173'
p667
I0
sS'4178'
p668
I0
sS'4179'
p669
I0
sS'20464'
p670
I2
sS'4619'
p671
I0
sS'4618'
p672
I0
sS'12053'
p673
I1
sS'12052'
p674
I1
sS'12055'
p675
I1
sS'12054'
p676
I1
sS'12057'
p677
I1
sS'12056'
p678
I1
sS'4611'
p679
I0
sS'4610'
p680
I0
sS'4613'
p681
I0
sS'4612'
p682
I0
sS'4615'
p683
I0
sS'4614'
p684
I0
sS'4617'
p685
I0
sS'4616'
p686
I0
sS'4505'
p687
I0
sS'4504'
p688
I0
sS'4507'
p689
I0
sS'4506'
p690
I0
sS'4501'
p691
I0
sS'4500'
p692
I0
sS'4503'
p693
I0
sS'4502'
p694
I0
sS'4509'
p695
I0
sS'4508'
p696
I0
sS'11658'
p697
I1
sS'11659'
p698
I1
sS'11652'
p699
I1
sS'11653'
p700
I1
sS'11650'
p701
I1
sS'11651'
p702
I1
sS'11656'
p703
I1
sS'11657'
p704
I1
sS'11654'
p705
I1
sS'11655'
p706
I1
sS'3799'
p707
I0
sS'3798'
p708
I0
sS'3795'
p709
I0
sS'3794'
p710
I0
sS'3797'
p711
I0
sS'3796'
p712
I0
sS'3791'
p713
I0
sS'3790'
p714
I0
sS'3793'
p715
I0
sS'3792'
p716
I0
sS'20450'
p717
I2
sS'20451'
p718
I2
sS'20452'
p719
I2
sS'20453'
p720
I2
sS'20454'
p721
I2
sS'20455'
p722
I2
sS'11838'
p723
I1
sS'11839'
p724
I1
sS'11836'
p725
I1
sS'11837'
p726
I1
sS'11834'
p727
I1
sS'11835'
p728
I1
sS'11832'
p729
I1
sS'11833'
p730
I1
sS'11830'
p731
I1
sS'11831'
p732
I1
sS'11902'
p733
I1
sS'11903'
p734
I1
sS'11900'
p735
I1
sS'11901'
p736
I1
sS'11906'
p737
I1
sS'11907'
p738
I1
sS'11904'
p739
I1
sS'11905'
p740
I1
sS'11908'
p741
I1
sS'11909'
p742
I1
sS'3308'
p743
I0
sS'3309'
p744
I0
sS'3306'
p745
I0
sS'3307'
p746
I0
sS'3304'
p747
I0
sS'3305'
p748
I0
sS'3302'
p749
I0
sS'3303'
p750
I0
sS'3300'
p751
I0
sS'3301'
p752
I0
sS'30369'
p753
I3
sS'30368'
p754
I3
sS'30367'
p755
I3
sS'30366'
p756
I3
sS'30365'
p757
I3
sS'30364'
p758
I3
sS'30363'
p759
I3
sS'30362'
p760
I3
sS'30361'
p761
I3
sS'30360'
p762
I3
sS'4189'
p763
I0
sS'4188'
p764
I0
sS'4181'
p765
I0
sS'4180'
p766
I0
sS'4183'
p767
I0
sS'4182'
p768
I0
sS'4185'
p769
I0
sS'4184'
p770
I0
sS'4187'
p771
I0
sS'4186'
p772
I0
sS'30381'
p773
I3
sS'30380'
p774
I3
sS'4349'
p775
I0
sS'4348'
p776
I0
sS'4347'
p777
I0
sS'4346'
p778
I0
sS'4345'
p779
I0
sS'4344'
p780
I0
sS'4343'
p781
I0
sS'4342'
p782
I0
sS'4341'
p783
I0
sS'4340'
p784
I0
sS'3878'
p785
I0
sS'3879'
p786
I0
sS'3870'
p787
I0
sS'3871'
p788
I0
sS'3872'
p789
I0
sS'3873'
p790
I0
sS'3874'
p791
I0
sS'3875'
p792
I0
sS'3876'
p793
I0
sS'3877'
p794
I0
sS'3904'
p795
I0
sS'3905'
p796
I0
sS'3906'
p797
I0
sS'3907'
p798
I0
sS'3900'
p799
I0
sS'3901'
p800
I0
sS'3902'
p801
I0
sS'3903'
p802
I0
sS'3908'
p803
I0
sS'3909'
p804
I0
sS'4167'
p805
I0
sS'4166'
p806
I0
sS'4165'
p807
I0
sS'4164'
p808
I0
sS'4163'
p809
I0
sS'4162'
p810
I0
sS'4161'
p811
I0
sS'4160'
p812
I0
sS'4169'
p813
I0
sS'4168'
p814
I0
sS'12042'
p815
I1
sS'12043'
p816
I1
sS'12040'
p817
I1
sS'12041'
p818
I1
sS'12046'
p819
I1
sS'12047'
p820
I1
sS'12044'
p821
I1
sS'12045'
p822
I1
sS'12048'
p823
I1
sS'12049'
p824
I1
sS'11799'
p825
I1
sS'11798'
p826
I1
sS'11793'
p827
I1
sS'11792'
p828
I1
sS'11791'
p829
I1
sS'11790'
p830
I1
sS'11797'
p831
I1
sS'11796'
p832
I1
sS'11795'
p833
I1
sS'11794'
p834
I1
sS'12022'
p835
I1
sS'3498'
p836
I0
sS'3499'
p837
I0
sS'3496'
p838
I0
sS'3497'
p839
I0
sS'3494'
p840
I0
sS'3495'
p841
I0
sS'3492'
p842
I0
sS'3493'
p843
I0
sS'3490'
p844
I0
sS'3491'
p845
I0
sS'4570'
p846
I0
sS'4571'
p847
I0
sS'4572'
p848
I0
sS'4573'
p849
I0
sS'4574'
p850
I0
sS'3659'
p851
I0
sS'4576'
p852
I0
sS'4577'
p853
I0
sS'3654'
p854
I0
sS'4579'
p855
I0
sS'3656'
p856
I0
sS'3657'
p857
I0
sS'3650'
p858
I0
sS'3651'
p859
I0
sS'3652'
p860
I0
sS'3653'
p861
I0
sS'11667'
p862
I1
sS'11666'
p863
I1
sS'11665'
p864
I1
sS'11664'
p865
I1
sS'11663'
p866
I1
sS'11662'
p867
I1
sS'11661'
p868
I1
sS'11660'
p869
I1
sS'12028'
p870
I1
sS'11669'
p871
I1
sS'11668'
p872
I1
sS'20595'
p873
I2
sS'20601'
p874
I2
sS'20600'
p875
I2
sS'20603'
p876
I2
sS'20602'
p877
I2
sS'20605'
p878
I2
sS'20597'
p879
I2
sS'20607'
p880
I2
sS'20606'
p881
I2
sS'20609'
p882
I2
sS'20608'
p883
I2
sS'20596'
p884
I2
sS'20599'
p885
I2
sS'20598'
p886
I2
sS'4408'
p887
I0
sS'4409'
p888
I0
sS'4404'
p889
I0
sS'4405'
p890
I0
sS'4406'
p891
I0
sS'4407'
p892
I0
sS'4400'
p893
I0
sS'4401'
p894
I0
sS'4402'
p895
I0
sS'4403'
p896
I0
sS'11809'
p897
I1
sS'11808'
p898
I1
sS'11803'
p899
I1
sS'11802'
p900
I1
sS'11801'
p901
I1
sS'11800'
p902
I1
sS'11807'
p903
I1
sS'11806'
p904
I1
sS'11805'
p905
I1
sS'11804'
p906
I1
sS'3276'
p907
I0
sS'3277'
p908
I0
sS'3274'
p909
I0
sS'3275'
p910
I0
sS'3272'
p911
I0
sS'3273'
p912
I0
sS'3271'
p913
I0
sS'3278'
p914
I0
sS'3279'
p915
I0
sS'3474'
p916
I0
sS'3475'
p917
I0
sS'3476'
p918
I0
sS'3477'
p919
I0
sS'3470'
p920
I0
sS'3471'
p921
I0
sS'3472'
p922
I0
sS'3473'
p923
I0
sS'3478'
p924
I0
sS'3479'
p925
I0
sS'20591'
p926
I2
sS'20590'
p927
I2
sS'20593'
p928
I2
sS'20592'
p929
I2
sS'20565'
p930
I2
sS'20594'
p931
I2
sS'11939'
p932
I1
sS'11938'
p933
I1
sS'11937'
p934
I1
sS'11936'
p935
I1
sS'11935'
p936
I1
sS'11934'
p937
I1
sS'11933'
p938
I1
sS'11932'
p939
I1
sS'11931'
p940
I1
sS'11930'
p941
I1
sS'3319'
p942
I0
sS'3318'
p943
I0
sS'20566'
p944
I2
sS'3311'
p945
I0
sS'3310'
p946
I0
sS'3313'
p947
I0
sS'3312'
p948
I0
sS'3315'
p949
I0
sS'3314'
p950
I0
sS'3317'
p951
I0
sS'3316'
p952
I0
sS'20560'
p953
I2
sS'20561'
p954
I2
sS'30378'
p955
I3
sS'30379'
p956
I3
sS'20438'
p957
I2
sS'30370'
p958
I3
sS'30371'
p959
I3
sS'30372'
p960
I3
sS'20439'
p961
I2
sS'30374'
p962
I3
sS'30375'
p963
I3
sS'30376'
p964
I3
sS'30377'
p965
I3
sS'4378'
p966
I0
sS'4379'
p967
I0
sS'4372'
p968
I0
sS'4373'
p969
I0
sS'4370'
p970
I0
sS'4371'
p971
I0
sS'4376'
p972
I0
sS'4377'
p973
I0
sS'4374'
p974
I0
sS'4375'
p975
I0
sS'4080'
p976
I0
sS'4081'
p977
I0
sS'3869'
p978
I0
sS'4083'
p979
I0
sS'4084'
p980
I0
sS'4085'
p981
I0
sS'4086'
p982
I0
sS'4087'
p983
I0
sS'4088'
p984
I0
sS'4089'
p985
I0
sS'3861'
p986
I0
sS'3860'
p987
I0
sS'3867'
p988
I0
sS'3866'
p989
I0
sS'3865'
p990
I0
sS'3864'
p991
I0
sS'3735'
p992
I0
sS'3734'
p993
I0
sS'3917'
p994
I0
sS'3916'
p995
I0
sS'3915'
p996
I0
sS'3914'
p997
I0
sS'3913'
p998
I0
sS'3912'
p999
I0
sS'3911'
p1000
I0
sS'3910'
p1001
I0
sS'12112'
p1002
I1
sS'3919'
p1003
I0
sS'3918'
p1004
I0
sS'12113'
p1005
I1
sS'4152'
p1006
I0
sS'4153'
p1007
I0
sS'4150'
p1008
I0
sS'4151'
p1009
I0
sS'4156'
p1010
I0
sS'4157'
p1011
I0
sS'4154'
p1012
I0
sS'4155'
p1013
I0
sS'4158'
p1014
I0
sS'4159'
p1015
I0
sS'12118'
p1016
I1
sS'12119'
p1017
I1
sS'11579'
p1018
I1
sS'11578'
p1019
I1
sS'11784'
p1020
I1
sS'11577'
p1021
I1
sS'11786'
p1022
I1
sS'11787'
p1023
I1
sS'11780'
p1024
I1
sS'11781'
p1025
I1
sS'11782'
p1026
I1
sS'11576'
p1027
I1
sS'12077'
p1028
I1
sS'12076'
p1029
I1
sS'12075'
p1030
I1
sS'12074'
p1031
I1
sS'11788'
p1032
I1
sS'11789'
p1033
I1
sS'12071'
p1034
I1
sS'12070'
p1035
I1
sS'20572'
p1036
I2
sS'3489'
p1037
I0
sS'3488'
p1038
I0
sS'3481'
p1039
I0
sS'3480'
p1040
I0
sS'3483'
p1041
I0
sS'3482'
p1042
I0
sS'3485'
p1043
I0
sS'3484'
p1044
I0
sS'3487'
p1045
I0
sS'3486'
p1046
I0
sS'4563'
p1047
I0
sS'4562'
p1048
I0
sS'4561'
p1049
I0
sS'4560'
p1050
I0
sS'4567'
p1051
I0
sS'4566'
p1052
I0
sS'4565'
p1053
I0
sS'4564'
p1054
I0
sS'3647'
p1055
I0
sS'3646'
p1056
I0
sS'4569'
p1057
I0
sS'4568'
p1058
I0
sS'3643'
p1059
I0
sS'3642'
p1060
I0
sS'3641'
p1061
I0
sS'3640'
p1062
I0
sS'11670'
p1063
I1
sS'11671'
p1064
I1
sS'11672'
p1065
I1
sS'11673'
p1066
I1
sS'11674'
p1067
I1
sS'11675'
p1068
I1
sS'11676'
p1069
I1
sS'11677'
p1070
I1
sS'11678'
p1071
I1
sS'11679'
p1072
I1
sS'20612'
p1073
I2
sS'20613'
p1074
I2
sS'20610'
p1075
I2
sS'20611'
p1076
I2
sS'20616'
p1077
I2
sS'20617'
p1078
I2
sS'20614'
p1079
I2
sS'20615'
p1080
I2
sS'20618'
p1081
I2
sS'20619'
p1082
I2
sS'4419'
p1083
I0
sS'4418'
p1084
I0
sS'4417'
p1085
I0
sS'4416'
p1086
I0
sS'4415'
p1087
I0
sS'4414'
p1088
I0
sS'4413'
p1089
I0
sS'4412'
p1090
I0
sS'4411'
p1091
I0
sS'4410'
p1092
I0
sS'12095'
p1093
I1
sS'12094'
p1094
I1
sS'12097'
p1095
I1
sS'12096'
p1096
I1
sS'12091'
p1097
I1
sS'12090'
p1098
I1
sS'12093'
p1099
I1
sS'12092'
p1100
I1
sS'12099'
p1101
I1
sS'12098'
p1102
I1
sS'12127'
p1103
I1
sS'3467'
p1104
I0
sS'3466'
p1105
I0
sS'3465'
p1106
I0
sS'3464'
p1107
I0
sS'3463'
p1108
I0
sS'3462'
p1109
I0
sS'3461'
p1110
I0
sS'3460'
p1111
I0
sS'3469'
p1112
I0
sS'3468'
p1113
I0
sS'11928'
p1114
I1
sS'11929'
p1115
I1
sS'20580'
p1116
I2
sS'20581'
p1117
I2
sS'20586'
p1118
I2
sS'20587'
p1119
I2
sS'20584'
p1120
I2
sS'20585'
p1121
I2
sS'11920'
p1122
I1
sS'11921'
p1123
I1
sS'11922'
p1124
I1
sS'11923'
p1125
I1
sS'11924'
p1126
I1
sS'11925'
p1127
I1
sS'11926'
p1128
I1
sS'11927'
p1129
I1
sS'11814'
p1130
I1
sS'11815'
p1131
I1
sS'11816'
p1132
I1
sS'11817'
p1133
I1
sS'11810'
p1134
I1
sS'11811'
p1135
I1
sS'11812'
p1136
I1
sS'11813'
p1137
I1
sS'11818'
p1138
I1
sS'11819'
p1139
I1
sS'30373'
p1140
I3
sS'4365'
p1141
I0
sS'4364'
p1142
I0
sS'4367'
p1143
I0
sS'4366'
p1144
I0
sS'4361'
p1145
I0
sS'4360'
p1146
I0
sS'4363'
p1147
I0
sS'4362'
p1148
I0
sS'4369'
p1149
I0
sS'4368'
p1150
I0
sS'12161'
p1151
I1
sS'12160'
p1152
I1
sS'4093'
p1153
I0
sS'4092'
p1154
I0
sS'4091'
p1155
I0
sS'4090'
p1156
I0
sS'4097'
p1157
I0
sS'4096'
p1158
I0
sS'4095'
p1159
I0
sS'4094'
p1160
I0
sS'4099'
p1161
I0
sS'4098'
p1162
I0
sS'12169'
p1163
I1
sS'12168'
p1164
I1
sS'3922'
p1165
I0
sS'3923'
p1166
I0
sS'3920'
p1167
I0
sS'3921'
p1168
I0
sS'3926'
p1169
I0
sS'3927'
p1170
I0
sS'3924'
p1171
I0
sS'3925'
p1172
I0
sS'3928'
p1173
I0
sS'3929'
p1174
I0
sS'12158'
p1175
I1
sS'20443'
p1176
I2
sS'20442'
p1177
I2
sS'4149'
p1178
I0
sS'4148'
p1179
I0
sS'4145'
p1180
I0
sS'4144'
p1181
I0
sS'4147'
p1182
I0
sS'4146'
p1183
I0
sS'4141'
p1184
I0
sS'4140'
p1185
I0
sS'4143'
p1186
I0
sS'4142'
p1187
I0
sS'3856'
p1188
I0
sS'3857'
p1189
I0
sS'3854'
p1190
I0
sS'3855'
p1191
I0
sS'3852'
p1192
I0
sS'3853'
p1193
I0
sS'3850'
p1194
I0
sS'3851'
p1195
I0
sS'3858'
p1196
I0
sS'3859'
p1197
I0
sS'12068'
p1198
I1
sS'12069'
p1199
I1
sS'20449'
p1200
I2
sS'12060'
p1201
I1
sS'12061'
p1202
I1
sS'12062'
p1203
I1
sS'12063'
p1204
I1
sS'12064'
p1205
I1
sS'12065'
p1206
I1
sS'12066'
p1207
I1
sS'12067'
p1208
I1
sS'20564'
p1209
I2
sS'3678'
p1210
I0
sS'3679'
p1211
I0
sS'4558'
p1212
I0
sS'4559'
p1213
I0
sS'3672'
p1214
I0
sS'3673'
p1215
I0
sS'3670'
p1216
I0
sS'3671'
p1217
I0
sS'3676'
p1218
I0
sS'3677'
p1219
I0
sS'3674'
p1220
I0
sS'3675'
p1221
I0
sS'20567'
p1222
I2
sS'11689'
p1223
I1
sS'11688'
p1224
I1
sS'11685'
p1225
I1
sS'11684'
p1226
I1
sS'11687'
p1227
I1
sS'11686'
p1228
I1
sS'11681'
p1229
I1
sS'11680'
p1230
I1
sS'11683'
p1231
I1
sS'11682'
p1232
I1
sS'20562'
p1233
I2
sS'20563'
p1234
I2
sS'3580'
p1235
I0
sS'3581'
p1236
I0
sS'3582'
p1237
I0
sS'3583'
p1238
I0
sS'3584'
p1239
I0
sS'3585'
p1240
I0
sS'3586'
p1241
I0
sS'3587'
p1242
I0
sS'3588'
p1243
I0
sS'3589'
p1244
I0
sS'20622'
p1245
I2
sS'20621'
p1246
I2
sS'20620'
p1247
I2
sS'4428'
p1248
I0
sS'4429'
p1249
I0
sS'4422'
p1250
I0
sS'4423'
p1251
I0
sS'4420'
p1252
I0
sS'4421'
p1253
I0
sS'4426'
p1254
I0
sS'4427'
p1255
I0
sS'4424'
p1256
I0
sS'4425'
p1257
I0
sS'12086'
p1258
I1
sS'12087'
p1259
I1
sS'12084'
p1260
I1
sS'12085'
p1261
I1
sS'12082'
p1262
I1
sS'12083'
p1263
I1
sS'12080'
p1264
I1
sS'12081'
p1265
I1
sS'12088'
p1266
I1
sS'12089'
p1267
I1
sS'20489'
p1268
I2
sS'20488'
p1269
I2
sS'20483'
p1270
I2
sS'20482'
p1271
I2
sS'20481'
p1272
I2
sS'20480'
p1273
I2
sS'20487'
p1274
I2
sS'4082'
p1275
I0
sS'20485'
p1276
I2
sS'20484'
p1277
I2
sS'3868'
p1278
I0
sS'3298'
p1279
I0
sS'3299'
p1280
I0
sS'3294'
p1281
I0
sS'3295'
p1282
I0
sS'3296'
p1283
I0
sS'3297'
p1284
I0
sS'3290'
p1285
I0
sS'3291'
p1286
I0
sS'3292'
p1287
I0
sS'3293'
p1288
I0
sS'3452'
p1289
I0
sS'3453'
p1290
I0
sS'3450'
p1291
I0
sS'3451'
p1292
I0
sS'3456'
p1293
I0
sS'3457'
p1294
I0
sS'3454'
p1295
I0
sS'3455'
p1296
I0
sS'3458'
p1297
I0
sS'3459'
p1298
I0
sS'3863'
p1299
I0
sS'3862'
p1300
I0
sS'20555'
p1301
I2
sS'20554'
p1302
I2
sS'20557'
p1303
I2
sS'20556'
p1304
I2
sS'20551'
p1305
I2
sS'20550'
p1306
I2
sS'3739'
p1307
I0
sS'20552'
p1308
I2
sS'20559'
p1309
I2
sS'20558'
p1310
I2
sS'12008'
p1311
I1
sS'12009'
p1312
I1
sS'11861'
p1313
I1
sS'11860'
p1314
I1
sS'11863'
p1315
I1
sS'11862'
p1316
I1
sS'3738'
p1317
I0
sS'11864'
p1318
I1
sS'11867'
p1319
I1
sS'11866'
p1320
I1
sS'11869'
p1321
I1
sS'11868'
p1322
I1
sS'20604'
p1323
I2
sS'12000'
p1324
I1
sS'12001'
p1325
I1
sS'4310'
p1326
I0
sS'4311'
p1327
I0
sS'4312'
p1328
I0
sS'4313'
p1329
I0
sS'4314'
p1330
I0
sS'4315'
p1331
I0
sS'4316'
p1332
I0
sS'4317'
p1333
I0
sS'4318'
p1334
I0
sS'4319'
p1335
I0
sS'4228'
p1336
I0
sS'4229'
p1337
I0
sS'4224'
p1338
I0
sS'4225'
p1339
I0
sS'4226'
p1340
I0
sS'4227'
p1341
I0
sS'4220'
p1342
I0
sS'4221'
p1343
I0
sS'4222'
p1344
I0
sS'4223'
p1345
I0
sS'3939'
p1346
I0
sS'3938'
p1347
I0
sS'3935'
p1348
I0
sS'3934'
p1349
I0
sS'3937'
p1350
I0
sS'3936'
p1351
I0
sS'3931'
p1352
I0
sS'3930'
p1353
I0
sS'3933'
p1354
I0
sS'3932'
p1355
I0
sS'4138'
p1356
I0
sS'4139'
p1357
I0
sS'4130'
p1358
I0
sS'4131'
p1359
I0
sS'4132'
p1360
I0
sS'4133'
p1361
I0
sS'4134'
p1362
I0
sS'4135'
p1363
I0
sS'4136'
p1364
I0
sS'4137'
p1365
I0
sS'3841'
p1366
I0
sS'3840'
p1367
I0
sS'3843'
p1368
I0
sS'3842'
p1369
I0
sS'3845'
p1370
I0
sS'3844'
p1371
I0
sS'3847'
p1372
I0
sS'3846'
p1373
I0
sS'3849'
p1374
I0
sS'3848'
p1375
I0
sS'11544'
p1376
I1
sS'4044'
p1377
I0
sS'4045'
p1378
I0
sS'4046'
p1379
I0
sS'4047'
p1380
I0
sS'4040'
p1381
I0
sS'4041'
p1382
I0
sS'4042'
p1383
I0
sS'4043'
p1384
I0
sS'4048'
p1385
I0
sS'4049'
p1386
I0
sS'11545'
p1387
I1
sS'3665'
p1388
I0
sS'3664'
p1389
I0
sS'3667'
p1390
I0
sS'3666'
p1391
I0
sS'3661'
p1392
I0
sS'3660'
p1393
I0
sS'3663'
p1394
I0
sS'3662'
p1395
I0
sS'3669'
p1396
I0
sS'3668'
p1397
I0
sS'4549'
p1398
I0
sS'4548'
p1399
I0
sS'4541'
p1400
I0
sS'4540'
p1401
I0
sS'4543'
p1402
I0
sS'4542'
p1403
I0
sS'4545'
p1404
I0
sS'4544'
p1405
I0
sS'4547'
p1406
I0
sS'4546'
p1407
I0
sS'11698'
p1408
I1
sS'11699'
p1409
I1
sS'11696'
p1410
I1
sS'11697'
p1411
I1
sS'11694'
p1412
I1
sS'11695'
p1413
I1
sS'11692'
p1414
I1
sS'11693'
p1415
I1
sS'11690'
p1416
I1
sS'11691'
p1417
I1
sS'3690'
p1418
I0
sS'3691'
p1419
I0
sS'3692'
p1420
I0
sS'3593'
p1421
I0
sS'3592'
p1422
I0
sS'3591'
p1423
I0
sS'3590'
p1424
I0
sS'3597'
p1425
I0
sS'3596'
p1426
I0
sS'3595'
p1427
I0
sS'3594'
p1428
I0
sS'4530'
p1429
I0
sS'3599'
p1430
I0
sS'3598'
p1431
I0
sS'3695'
p1432
I0
sS'4435'
p1433
I0
sS'4434'
p1434
I0
sS'4437'
p1435
I0
sS'4436'
p1436
I0
sS'4431'
p1437
I0
sS'4430'
p1438
I0
sS'4433'
p1439
I0
sS'4432'
p1440
I0
sS'4533'
p1441
I0
sS'4439'
p1442
I0
sS'4438'
p1443
I0
sS'12078'
p1444
I1
sS'12138'
p1445
I1
sS'12139'
p1446
I1
sS'3289'
p1447
I0
sS'3288'
p1448
I0
sS'3287'
p1449
I0
sS'3286'
p1450
I0
sS'3285'
p1451
I0
sS'3284'
p1452
I0
sS'3283'
p1453
I0
sS'3282'
p1454
I0
sS'3281'
p1455
I0
sS'3280'
p1456
I0
sS'12131'
p1457
I1
sS'3449'
p1458
I0
sS'3448'
p1459
I0
sS'3445'
p1460
I0
sS'3444'
p1461
I0
sS'3447'
p1462
I0
sS'3446'
p1463
I0
sS'3441'
p1464
I0
sS'3440'
p1465
I0
sS'3443'
p1466
I0
sS'3442'
p1467
I0
sS'20546'
p1468
I2
sS'20547'
p1469
I2
sS'20544'
p1470
I2
sS'20545'
p1471
I2
sS'20542'
p1472
I2
sS'20543'
p1473
I2
sS'20540'
p1474
I2
sS'20541'
p1475
I2
sS'20548'
p1476
I2
sS'20549'
p1477
I2
sS'20553'
p1478
I2
sS'11872'
p1479
I1
sS'11873'
p1480
I1
sS'11870'
p1481
I1
sS'11871'
p1482
I1
sS'11876'
p1483
I1
sS'11877'
p1484
I1
sS'11874'
p1485
I1
sS'11875'
p1486
I1
sS'11878'
p1487
I1
sS'11879'
p1488
I1
sS'20498'
p1489
I2
sS'20499'
p1490
I2
sS'12073'
p1491
I1
sS'12072'
p1492
I1
sS'4303'
p1493
I0
sS'4302'
p1494
I0
sS'4301'
p1495
I0
sS'4300'
p1496
I0
sS'4307'
p1497
I0
sS'4306'
p1498
I0
sS'4305'
p1499
I0
sS'4304'
p1500
I0
sS'4309'
p1501
I0
sS'4308'
p1502
I0
sS'4239'
p1503
I0
sS'4238'
p1504
I0
sS'4237'
p1505
I0
sS'4236'
p1506
I0
sS'4235'
p1507
I0
sS'4234'
p1508
I0
sS'4233'
p1509
I0
sS'4232'
p1510
I0
sS'4231'
p1511
I0
sS'4230'
p1512
I0
sS'11785'
p1513
I1
sS'3948'
p1514
I0
sS'3949'
p1515
I0
sS'12079'
p1516
I1
sS'3940'
p1517
I0
sS'3941'
p1518
I0
sS'3942'
p1519
I0
sS'3943'
p1520
I0
sS'3944'
p1521
I0
sS'3945'
p1522
I0
sS'3946'
p1523
I0
sS'3947'
p1524
I0
sS'4129'
p1525
I0
sS'4128'
p1526
I0
sS'4123'
p1527
I0
sS'4122'
p1528
I0
sS'4121'
p1529
I0
sS'4120'
p1530
I0
sS'4127'
p1531
I0
sS'4126'
p1532
I0
sS'4125'
p1533
I0
sS'4124'
p1534
I0
sS'4057'
p1535
I0
sS'4056'
p1536
I0
sS'4055'
p1537
I0
sS'4054'
p1538
I0
sS'4053'
p1539
I0
sS'4052'
p1540
I0
sS'4051'
p1541
I0
sS'4050'
p1542
I0
sS'4059'
p1543
I0
sS'4058'
p1544
I0
sS'3610'
p1545
I0
sS'3611'
p1546
I0
sS'3612'
p1547
I0
sS'3613'
p1548
I0
sS'3614'
p1549
I0
sS'3615'
p1550
I0
sS'3616'
p1551
I0
sS'3617'
p1552
I0
sS'3618'
p1553
I0
sS'3619'
p1554
I0
sS'11783'
p1555
I1
sS'4440'
p1556
I0
sS'4441'
p1557
I0
sS'4442'
p1558
I0
sS'4443'
p1559
I0
sS'3728'
p1560
I0
sS'3729'
p1561
I0
sS'4446'
p1562
I0
sS'4447'
p1563
I0
sS'3724'
p1564
I0
sS'3725'
p1565
I0
sS'3726'
p1566
I0
sS'3727'
p1567
I0
sS'3720'
p1568
I0
sS'3721'
p1569
I0
sS'3722'
p1570
I0
sS'3723'
p1571
I0
sS'20468'
p1572
I2
sS'11735'
p1573
I1
sS'11734'
p1574
I1
sS'11737'
p1575
I1
sS'11736'
p1576
I1
sS'11731'
p1577
I1
sS'11730'
p1578
I1
sS'11733'
p1579
I1
sS'11732'
p1580
I1
sS'11739'
p1581
I1
sS'11738'
p1582
I1
sS'3438'
p1583
I0
sS'3439'
p1584
I0
sS'3430'
p1585
I0
sS'3431'
p1586
I0
sS'3432'
p1587
I0
sS'3433'
p1588
I0
sS'3434'
p1589
I0
sS'3435'
p1590
I0
sS'3436'
p1591
I0
sS'3437'
p1592
I0
sS'4592'
p1593
I0
sS'4593'
p1594
I0
sS'4590'
p1595
I0
sS'4591'
p1596
I0
sS'4596'
p1597
I0
sS'4597'
p1598
I0
sS'4594'
p1599
I0
sS'4595'
p1600
I0
sS'4598'
p1601
I0
sS'4599'
p1602
I0
sS'11999'
p1603
I1
sS'11998'
p1604
I1
sS'20571'
p1605
I2
sS'20570'
p1606
I2
sS'20577'
p1607
I2
sS'20576'
p1608
I2
sS'20575'
p1609
I2
sS'20574'
p1610
I2
sS'11991'
p1611
I1
sS'11990'
p1612
I1
sS'11993'
p1613
I1
sS'11992'
p1614
I1
sS'11995'
p1615
I1
sS'11994'
p1616
I1
sS'11997'
p1617
I1
sS'11996'
p1618
I1
sS'3544'
p1619
I0
sS'3545'
p1620
I0
sS'3546'
p1621
I0
sS'3547'
p1622
I0
sS'3540'
p1623
I0
sS'3541'
p1624
I0
sS'3542'
p1625
I0
sS'3543'
p1626
I0
sS'3548'
p1627
I0
sS'3549'
p1628
I0
sS'11849'
p1629
I1
sS'11848'
p1630
I1
sS'11847'
p1631
I1
sS'11846'
p1632
I1
sS'11845'
p1633
I1
sS'11844'
p1634
I1
sS'11843'
p1635
I1
sS'11842'
p1636
I1
sS'11841'
p1637
I1
sS'11840'
p1638
I1
sS'3649'
p1639
I0
sS'3648'
p1640
I0
sS'3645'
p1641
I0
sS'20494'
p1642
I2
sS'3644'
p1643
I0
sS'20495'
p1644
I2
sS'20496'
p1645
I2
sS'20497'
p1646
I2
sS'20490'
p1647
I2
sS'20491'
p1648
I2
sS'20492'
p1649
I2
sS'4338'
p1650
I0
sS'4339'
p1651
I0
sS'4336'
p1652
I0
sS'4337'
p1653
I0
sS'4334'
p1654
I0
sS'4335'
p1655
I0
sS'4332'
p1656
I0
sS'4333'
p1657
I0
sS'4330'
p1658
I0
sS'4331'
p1659
I0
sS'4208'
p1660
I0
sS'4209'
p1661
I0
sS'4202'
p1662
I0
sS'4203'
p1663
I0
sS'4200'
p1664
I0
sS'4201'
p1665
I0
sS'4206'
p1666
I0
sS'4207'
p1667
I0
sS'4204'
p1668
I0
sS'4205'
p1669
I0
sS'3959'
p1670
I0
sS'3958'
p1671
I0
sS'3953'
p1672
I0
sS'3952'
p1673
I0
sS'3951'
p1674
I0
sS'3950'
p1675
I0
sS'3957'
p1676
I0
sS'3956'
p1677
I0
sS'3955'
p1678
I0
sS'3954'
p1679
I0
sS'4116'
p1680
I0
sS'4117'
p1681
I0
sS'4114'
p1682
I0
sS'4115'
p1683
I0
sS'4112'
p1684
I0
sS'4113'
p1685
I0
sS'4110'
p1686
I0
sS'4111'
p1687
I0
sS'4118'
p1688
I0
sS'4119'
p1689
I0
sS'4448'
p1690
I0
sS'4449'
p1691
I0
sS'4062'
p1692
I0
sS'4063'
p1693
I0
sS'4060'
p1694
I0
sS'4061'
p1695
I0
sS'4066'
p1696
I0
sS'4067'
p1697
I0
sS'4064'
p1698
I0
sS'4065'
p1699
I0
sS'4068'
p1700
I0
sS'4069'
p1701
I0
sS'3603'
p1702
I0
sS'3602'
p1703
I0
sS'3601'
p1704
I0
sS'3600'
p1705
I0
sS'3607'
p1706
I0
sS'3606'
p1707
I0
sS'3605'
p1708
I0
sS'3604'
p1709
I0
sS'3609'
p1710
I0
sS'3608'
p1711
I0
sS'4453'
p1712
I0
sS'4452'
p1713
I0
sS'4451'
p1714
I0
sS'4450'
p1715
I0
sS'4457'
p1716
I0
sS'4456'
p1717
I0
sS'4455'
p1718
I0
sS'4454'
p1719
I0
sS'3737'
p1720
I0
sS'3736'
p1721
I0
sS'4459'
p1722
I0
sS'4458'
p1723
I0
sS'3733'
p1724
I0
sS'3732'
p1725
I0
sS'3731'
p1726
I0
sS'3730'
p1727
I0
sS'11726'
p1728
I1
sS'11727'
p1729
I1
sS'11724'
p1730
I1
sS'11725'
p1731
I1
sS'11722'
p1732
I1
sS'11723'
p1733
I1
sS'11720'
p1734
I1
sS'11721'
p1735
I1
sS'11728'
p1736
I1
sS'11729'
p1737
I1
sS'3429'
p1738
I0
sS'3428'
p1739
I0
sS'3423'
p1740
I0
sS'3422'
p1741
I0
sS'3421'
p1742
I0
sS'3420'
p1743
I0
sS'3427'
p1744
I0
sS'3426'
p1745
I0
sS'3425'
p1746
I0
sS'3424'
p1747
I0
sS'12165'
p1748
I1
sS'12164'
p1749
I1
sS'12167'
p1750
I1
sS'12166'
p1751
I1
sS'4589'
p1752
I0
sS'4588'
p1753
I0
sS'12163'
p1754
I1
sS'12162'
p1755
I1
sS'4585'
p1756
I0
sS'4584'
p1757
I0
sS'4587'
p1758
I0
sS'4586'
p1759
I0
sS'4581'
p1760
I0
sS'4580'
p1761
I0
sS'4583'
p1762
I0
sS'4582'
p1763
I0
sS'11988'
p1764
I1
sS'11989'
p1765
I1
sS'20568'
p1766
I2
sS'20569'
p1767
I2
sS'11982'
p1768
I1
sS'11983'
p1769
I1
sS'11980'
p1770
I1
sS'11981'
p1771
I1
sS'11986'
p1772
I1
sS'11987'
p1773
I1
sS'11984'
p1774
I1
sS'11985'
p1775
I1
sS'3557'
p1776
I0
sS'3556'
p1777
I0
sS'3555'
p1778
I0
sS'3554'
p1779
I0
sS'3553'
p1780
I0
sS'3552'
p1781
I0
sS'3551'
p1782
I0
sS'3550'
p1783
I0
sS'3559'
p1784
I0
sS'3558'
p1785
I0
sS'11858'
p1786
I1
sS'11859'
p1787
I1
sS'11850'
p1788
I1
sS'11851'
p1789
I1
sS'11852'
p1790
I1
sS'11853'
p1791
I1
sS'11854'
p1792
I1
sS'11855'
p1793
I1
sS'11856'
p1794
I1
sS'11857'
p1795
I1
sS'12157'
p1796
I1
sS'12150'
p1797
I1
sS'12151'
p1798
I1
sS'11533'
p1799
I1
sS'11532'
p1800
I1
sS'11531'
p1801
I1
sS'4329'
p1802
I0
sS'4328'
p1803
I0
sS'11530'
p1804
I1
sS'4321'
p1805
I0
sS'4320'
p1806
I0
sS'4323'
p1807
I0
sS'4322'
p1808
I0
sS'4325'
p1809
I0
sS'4324'
p1810
I0
sS'4327'
p1811
I0
sS'4326'
p1812
I0
sS'11535'
p1813
I1
sS'20533'
p1814
I2
sS'11534'
p1815
I1
sS'20532'
p1816
I2
sS'3386'
p1817
I0
sS'3387'
p1818
I0
sS'3384'
p1819
I0
sS'3385'
p1820
I0
sS'3382'
p1821
I0
sS'3383'
p1822
I0
sS'3380'
p1823
I0
sS'3381'
p1824
I0
sS'3388'
p1825
I0
sS'3389'
p1826
I0
sS'4215'
p1827
I0
sS'4214'
p1828
I0
sS'4217'
p1829
I0
sS'4216'
p1830
I0
sS'4211'
p1831
I0
sS'4210'
p1832
I0
sS'4213'
p1833
I0
sS'4212'
p1834
I0
sS'4219'
p1835
I0
sS'4218'
p1836
I0
sS'20539'
p1837
I2
sS'20538'
p1838
I2
sS'4101'
p1839
I0
sS'4100'
p1840
I0
sS'4103'
p1841
I0
sS'4102'
p1842
I0
sS'4105'
p1843
I0
sS'4104'
p1844
I0
sS'4107'
p1845
I0
sS'4106'
p1846
I0
sS'4109'
p1847
I0
sS'4108'
p1848
I0
sS'3898'
p1849
I0
sS'3899'
p1850
I0
sS'3892'
p1851
I0
sS'3893'
p1852
I0
sS'3890'
p1853
I0
sS'3891'
p1854
I0
sS'3896'
p1855
I0
sS'3897'
p1856
I0
sS'3894'
p1857
I0
sS'3895'
p1858
I0
sS'12051'
p1859
I1
sS'11539'
p1860
I1
sS'11538'
p1861
I1
sS'4079'
p1862
I0
sS'4078'
p1863
I0
sS'12050'
p1864
I1
sS'4075'
p1865
I0
sS'4074'
p1866
I0
sS'4077'
p1867
I0
sS'4076'
p1868
I0
sS'4071'
p1869
I0
sS'4070'
p1870
I0
sS'4073'
p1871
I0
sS'4072'
p1872
I0
sS'3966'
p1873
I0
sS'3967'
p1874
I0
sS'3964'
p1875
I0
sS'3965'
p1876
I0
sS'3962'
p1877
I0
sS'3963'
p1878
I0
sS'3960'
p1879
I0
sS'3961'
p1880
I0
sS'3968'
p1881
I0
sS'3969'
p1882
I0
sS'3638'
p1883
I0
sS'3639'
p1884
I0
sS'3636'
p1885
I0
sS'3637'
p1886
I0
sS'3634'
p1887
I0
sS'3635'
p1888
I0
sS'3632'
p1889
I0
sS'3633'
p1890
I0
sS'3630'
p1891
I0
sS'3631'
p1892
I0
sS'12059'
p1893
I1
sS'12058'
p1894
I1
sS'20582'
p1895
I2
sS'20583'
p1896
I2
sS'3708'
p1897
I0
sS'3709'
p1898
I0
sS'4468'
p1899
I0
sS'4469'
p1900
I0
sS'3702'
p1901
I0
sS'3703'
p1902
I0
sS'3700'
p1903
I0
sS'3701'
p1904
I0
sS'3706'
p1905
I0
sS'3707'
p1906
I0
sS'3704'
p1907
I0
sS'3705'
p1908
I0
sS'20589'
p1909
I2
sS'4668'
p1910
I0
sS'4669'
p1911
I0
sS'4664'
p1912
I0
sS'4665'
p1913
I0
sS'4666'
p1914
I0
sS'4667'
p1915
I0
sS'4660'
p1916
I0
sS'4661'
p1917
I0
sS'4662'
p1918
I0
sS'4663'
p1919
I0
sS'11713'
p1920
I1
sS'11712'
p1921
I1
sS'11711'
p1922
I1
sS'11710'
p1923
I1
sS'11717'
p1924
I1
sS'11716'
p1925
I1
sS'11715'
p1926
I1
sS'11714'
p1927
I1
sS'11719'
p1928
I1
sS'11718'
p1929
I1
sS'3416'
p1930
I0
sS'3417'
p1931
I0
sS'3414'
p1932
I0
sS'3415'
p1933
I0
sS'3412'
p1934
I0
sS'3413'
p1935
I0
sS'3410'
p1936
I0
sS'3411'
p1937
I0
sS'3418'
p1938
I0
sS'3419'
p1939
I0
sS'12176'
p1940
I1
sS'12174'
p1941
I1
sS'12175'
p1942
I1
sS'12172'
p1943
I1
sS'12173'
p1944
I1
sS'12170'
p1945
I1
sS'12171'
p1946
I1
sS'20519'
p1947
I2
sS'20518'
p1948
I2
sS'20511'
p1949
I2
sS'20510'
p1950
I2
sS'20513'
p1951
I2
sS'20512'
p1952
I2
sS'20515'
p1953
I2
sS'20514'
p1954
I2
sS'20517'
p1955
I2
sS'20516'
p1956
I2
sS'3562'
p1957
I0
sS'3563'
p1958
I0
sS'3560'
p1959
I0
sS'3561'
p1960
I0
sS'3566'
p1961
I0
sS'3567'
p1962
I0
sS'3564'
p1963
I0
sS'3565'
p1964
I0
sS'3568'
p1965
I0
sS'3569'
p1966
I0
sS'4484'
p1967
I0
sS'4485'
p1968
I0
sS'4486'
p1969
I0
sS'4487'
p1970
I0
sS'4480'
p1971
I0
sS'4481'
p1972
I0
sS'4482'
p1973
I0
sS'4483'
p1974
I0
sS'4488'
p1975
I0
sS'4489'
p1976
I0
sS'11883'
p1977
I1
sS'11882'
p1978
I1
sS'11881'
p1979
I1
sS'11880'
p1980
I1
sS'11887'
p1981
I1
sS'11886'
p1982
I1
sS'11885'
p1983
I1
sS'11884'
p1984
I1
sS'11889'
p1985
I1
sS'11888'
p1986
I1
sS'3391'
p1987
I0
sS'3390'
p1988
I0
sS'3393'
p1989
I0
sS'3392'
p1990
I0
sS'3395'
p1991
I0
sS'3394'
p1992
I0
sS'3397'
p1993
I0
sS'3396'
p1994
I0
sS'3399'
p1995
I0
sS'3398'
p1996
I0
sS'4260'
p1997
I0
sS'4261'
p1998
I0
sS'4262'
p1999
I0
sS'4263'
p2000
I0
sS'4264'
p2001
I0
sS'4265'
p2002
I0
sS'4266'
p2003
I0
sS'4267'
p2004
I0
sS'4268'
p2005
I0
sS'4269'
p2006
I0
sS'4466'
p2007
I0
sS'4467'
p2008
I0
sS'4464'
p2009
I0
sS'4465'
p2010
I0
sS'12029'
p2011
I1
sS'4462'
p2012
I0
sS'4463'
p2013
I0
sS'4460'
p2014
I0
sS'4461'
p2015
I0
sS'3885'
p2016
I0
sS'3884'
p2017
I0
sS'3887'
p2018
I0
sS'3886'
p2019
I0
sS'3881'
p2020
I0
sS'3880'
p2021
I0
sS'3883'
p2022
I0
sS'3882'
p2023
I0
sS'3889'
p2024
I0
sS'3888'
p2025
I0
sS'11524'
p2026
I1
sS'11525'
p2027
I1
sS'11526'
p2028
I1
sS'11527'
p2029
I1
sS'11528'
p2030
I1
sS'11529'
p2031
I1
sS'4008'
p2032
I0
sS'4009'
p2033
I0
sS'4000'
p2034
I0
sS'4001'
p2035
I0
sS'4002'
p2036
I0
sS'4003'
p2037
I0
sS'4004'
p2038
I0
sS'4005'
p2039
I0
sS'4006'
p2040
I0
sS'4007'
p2041
I0
sS'3971'
p2042
I0
sS'3970'
p2043
I0
sS'3973'
p2044
I0
sS'3972'
p2045
I0
sS'3975'
p2046
I0
sS'3974'
p2047
I0
sS'3977'
p2048
I0
sS'3976'
p2049
I0
sS'3979'
p2050
I0
sS'3978'
p2051
I0
sS'3629'
p2052
I0
sS'3628'
p2053
I0
sS'3621'
p2054
I0
sS'3620'
p2055
I0
sS'3623'
p2056
I0
sS'3622'
p2057
I0
sS'3625'
p2058
I0
sS'3624'
p2059
I0
sS'3627'
p2060
I0
sS'3626'
p2061
I0
sS'3715'
p2062
I0
sS'3714'
p2063
I0
sS'3717'
p2064
I0
sS'3716'
p2065
I0
sS'3711'
p2066
I0
sS'3710'
p2067
I0
sS'3713'
p2068
I0
sS'3712'
p2069
I0
sS'3719'
p2070
I0
sS'3718'
p2071
I0
sS'4479'
p2072
I0
sS'4478'
p2073
I0
sS'4471'
p2074
I0
sS'4470'
p2075
I0
sS'4473'
p2076
I0
sS'4472'
p2077
I0
sS'4475'
p2078
I0
sS'4474'
p2079
I0
sS'4477'
p2080
I0
sS'4476'
p2081
I0
sS'4671'
p2082
I0
sS'4670'
p2083
I0
sS'11708'
p2084
I1
sS'11709'
p2085
I1
sS'11704'
p2086
I1
sS'11705'
p2087
I1
sS'11706'
p2088
I1
sS'11707'
p2089
I1
sS'11700'
p2090
I1
sS'11701'
p2091
I1
sS'11702'
p2092
I1
sS'11703'
p2093
I1
sS'3401'
p2094
I0
sS'3400'
p2095
I0
sS'3403'
p2096
I0
sS'3402'
p2097
I0
sS'3405'
p2098
I0
sS'3404'
p2099
I0
sS'3407'
p2100
I0
sS'3406'
p2101
I0
sS'3409'
p2102
I0
sS'3408'
p2103
I0
sS'12143'
p2104
I1
sS'12142'
p2105
I1
sS'12141'
p2106
I1
sS'12140'
p2107
I1
sS'12147'
p2108
I1
sS'12146'
p2109
I1
sS'12145'
p2110
I1
sS'12144'
p2111
I1
sS'11537'
p2112
I1
sS'12149'
p2113
I1
sS'12148'
p2114
I1
sS'20508'
p2115
I2
sS'20509'
p2116
I2
sS'11536'
p2117
I1
sS'20502'
p2118
I2
sS'20503'
p2119
I2
sS'20500'
p2120
I2
sS'20501'
p2121
I2
sS'20506'
p2122
I2
sS'20507'
p2123
I2
sS'20504'
p2124
I2
sS'20505'
p2125
I2
sS'3579'
p2126
I0
sS'3578'
p2127
I0
sS'3575'
p2128
I0
sS'3574'
p2129
I0
sS'3577'
p2130
I0
sS'3576'
p2131
I0
sS'3571'
p2132
I0
sS'3570'
p2133
I0
sS'3573'
p2134
I0
sS'3572'
p2135
I0
sS'4497'
p2136
I0
sS'4496'
p2137
I0
sS'4495'
p2138
I0
sS'4494'
p2139
I0
sS'4493'
p2140
I0
sS'4492'
p2141
I0
sS'4491'
p2142
I0
sS'4490'
p2143
I0
sS'4499'
p2144
I0
sS'4498'
p2145
I0
sS'20436'
p2146
I2
sS'20437'
p2147
I2
sS'11898'
p2148
I1
sS'11899'
p2149
I1
sS'11894'
p2150
I1
sS'11895'
p2151
I1
sS'11896'
p2152
I1
sS'11897'
p2153
I1
sS'11890'
p2154
I1
sS'11891'
p2155
I1
sS'11892'
p2156
I1
sS'11893'
p2157
I1
sS'30309'
p2158
I3
sS'30308'
p2159
I3
sS'30305'
p2160
I3
sS'30304'
p2161
I3
sS'30307'
p2162
I3
sS'30306'
p2163
I3
sS'30301'
p2164
I3
sS'30300'
p2165
I3
sS'30303'
p2166
I3
sS'30302'
p2167
I3
sS'3368'
p2168
I0
sS'3369'
p2169
I0
sS'3364'
p2170
I0
sS'3365'
p2171
I0
sS'3366'
p2172
I0
sS'3367'
p2173
I0
sS'3360'
p2174
I0
sS'3361'
p2175
I0
sS'3362'
p2176
I0
sS'3363'
p2177
I0
sS'30271'
p2178
I3
sS'30270'
p2179
I3
sS'30273'
p2180
I3
sS'30272'
p2181
I3
sS'30275'
p2182
I3
sS'30274'
p2183
I3
sS'30277'
p2184
I3
sS'30276'
p2185
I3
sS'30279'
p2186
I3
sS'30278'
p2187
I3
sS'4273'
p2188
I0
sS'4272'
p2189
I0
sS'4271'
p2190
I0
sS'4270'
p2191
I0
sS'4277'
p2192
I0
sS'4276'
p2193
I0
sS'4275'
p2194
I0
sS'4274'
p2195
I0
sS'4279'
p2196
I0
sS'4278'
p2197
I0
sS'20573'
p2198
I2
sS'12108'
p2199
I1
sS'20456'
p2200
I2
sS'20457'
p2201
I2
sS'20458'
p2202
I2
sS'20459'
p2203
I2
sS'11551'
p2204
I1
sS'11550'
p2205
I1
sS'11553'
p2206
I1
sS'11552'
p2207
I1
sS'11555'
p2208
I1
sS'11554'
p2209
I1
sS'11557'
p2210
I1
sS'11556'
p2211
I1
sS'11559'
p2212
I1
sS'11558'
p2213
I1
sS'4019'
p2214
I0
sS'4018'
p2215
I0
sS'4013'
p2216
I0
sS'4012'
p2217
I0
sS'4011'
p2218
I0
sS'4010'
p2219
I0
sS'4017'
p2220
I0
sS'4016'
p2221
I0
sS'4015'
p2222
I0
sS'4014'
p2223
I0
sS'3988'
p2224
I0
sS'3989'
p2225
I0
sS'3984'
p2226
I0
sS'3985'
p2227
I0
sS'3986'
p2228
I0
sS'3987'
p2229
I0
sS'3980'
p2230
I0
sS'3981'
p2231
I0
sS'3982'
p2232
I0
sS'3983'
p2233
I0
sS'12039'
p2234
I1
sS'3760'
p2235
I0
sS'3761'
p2236
I0
sS'3762'
p2237
I0
sS'3763'
p2238
I0
sS'3764'
p2239
I0
sS'3765'
p2240
I0
sS'3766'
p2241
I0
sS'3767'
p2242
I0
sS'3768'
p2243
I0
sS'3769'
p2244
I0
sS'4648'
p2245
I0
sS'4649'
p2246
I0
sS'4642'
p2247
I0
sS'4643'
p2248
I0
sS'4640'
p2249
I0
sS'4641'
p2250
I0
sS'4646'
p2251
I0
sS'4647'
p2252
I0
sS'4644'
p2253
I0
sS'4645'
p2254
I0
sS'11779'
p2255
I1
sS'11778'
p2256
I1
sS'11771'
p2257
I1
sS'11770'
p2258
I1
sS'11773'
p2259
I1
sS'11772'
p2260
I1
sS'11775'
p2261
I1
sS'11774'
p2262
I1
sS'11777'
p2263
I1
sS'11776'
p2264
I1
sS'12159'
p2265
I1
sS'11605'
p2266
I1
sS'11604'
p2267
I1
sS'11607'
p2268
I1
sS'11606'
p2269
I1
sS'11601'
p2270
I1
sS'11600'
p2271
I1
sS'11603'
p2272
I1
sS'11602'
p2273
I1
sS'12154'
p2274
I1
sS'12155'
p2275
I1
sS'12156'
p2276
I1
sS'3680'
p2277
I0
sS'11609'
p2278
I1
sS'11608'
p2279
I1
sS'12152'
p2280
I1
sS'12153'
p2281
I1
sS'20537'
p2282
I2
sS'20536'
p2283
I2
sS'20535'
p2284
I2
sS'20534'
p2285
I2
sS'11959'
p2286
I1
sS'11958'
p2287
I1
sS'20531'
p2288
I2
sS'20530'
p2289
I2
sS'11955'
p2290
I1
sS'11954'
p2291
I1
sS'11957'
p2292
I1
sS'11956'
p2293
I1
sS'11951'
p2294
I1
sS'11950'
p2295
I1
sS'11953'
p2296
I1
sS'11952'
p2297
I1
sS'12038'
p2298
I1
sS'3508'
p2299
I0
sS'3509'
p2300
I0
sS'3500'
p2301
I0
sS'3501'
p2302
I0
sS'3502'
p2303
I0
sS'3503'
p2304
I0
sS'3504'
p2305
I0
sS'3505'
p2306
I0
sS'3506'
p2307
I0
sS'3507'
p2308
I0
sS'12033'
p2309
I1
sS'12032'
p2310
I1
sS'12037'
p2311
I1
sS'30318'
p2312
I3
sS'30319'
p2313
I3
sS'30316'
p2314
I3
sS'30317'
p2315
I3
sS'30314'
p2316
I3
sS'30315'
p2317
I3
sS'30312'
p2318
I3
sS'30313'
p2319
I3
sS'30310'
p2320
I3
sS'30311'
p2321
I3
sS'3379'
p2322
I0
sS'3378'
p2323
I0
sS'3377'
p2324
I0
sS'3376'
p2325
I0
sS'3375'
p2326
I0
sS'3374'
p2327
I0
sS'3373'
p2328
I0
sS'3372'
p2329
I0
sS'3371'
p2330
I0
sS'3370'
p2331
I0
sS'30268'
p2332
I3
sS'30269'
p2333
I3
sS'4248'
p2334
I0
sS'4249'
p2335
I0
sS'4246'
p2336
I0
sS'4247'
p2337
I0
sS'4244'
p2338
I0
sS'4245'
p2339
I0
sS'4242'
p2340
I0
sS'4243'
p2341
I0
sS'4240'
p2342
I0
sS'4241'
p2343
I0
sS'20588'
p2344
I2
sS'4398'
p2345
I0
sS'4399'
p2346
I0
sS'4390'
p2347
I0
sS'4391'
p2348
I0
sS'4392'
p2349
I0
sS'4393'
p2350
I0
sS'4394'
p2351
I0
sS'4395'
p2352
I0
sS'4396'
p2353
I0
sS'4397'
p2354
I0
sS'4444'
p2355
I0
sS'4445'
p2356
I0
s.